ARM GAS  C:\Users\elizavet\AppData\Local\Temp\cclTciX7.s 			page 1


   1              		.syntax unified
   2              		.cpu cortex-m0
   3              		.fpu softvfp
   4              		.eabi_attribute 20, 1
   5              		.eabi_attribute 21, 1
   6              		.eabi_attribute 23, 3
   7              		.eabi_attribute 24, 1
   8              		.eabi_attribute 25, 1
   9              		.eabi_attribute 26, 1
  10              		.eabi_attribute 30, 1
  11              		.eabi_attribute 34, 0
  12              		.eabi_attribute 18, 4
  13              		.thumb
  14              		.syntax unified
  15              		.file	"main.c"
  16              		.text
  17              	.Ltext0:
  18              		.cfi_sections	.debug_frame
  19              		.section	.text.timer_isr_interrupt,"ax",%progbits
  20              		.align	2
  21              		.global	timer_isr_interrupt
  22              		.code	16
  23              		.thumb_func
  24              		.type	timer_isr_interrupt, %function
  25              	timer_isr_interrupt:
  26              	.LFB34:
  27              		.file 1 "main.c"
   1:main.c        **** /* ========================================
   2:main.c        ****  *
   3:main.c        ****  * Copyright YOUR COMPANY, THE YEAR
   4:main.c        ****  * All Rights Reserved
   5:main.c        ****  * UNPUBLISHED, LICENSED SOFTWARE.
   6:main.c        ****  *
   7:main.c        ****  * CONFIDENTIAL AND PROPRIETARY INFORMATION
   8:main.c        ****  * WHICH IS THE PROPERTY OF your company.
   9:main.c        ****  *
  10:main.c        ****  * ========================================
  11:main.c        **** */
  12:main.c        **** #include "project.h"
  13:main.c        **** #define INTERVAL 20
  14:main.c        **** 
  15:main.c        **** typedef enum Color {
  16:main.c        ****   _ = 0b000,
  17:main.c        ****   R = 0b001, 
  18:main.c        ****   Y = 0b010, 
  19:main.c        ****   G = 0b100
  20:main.c        **** } Color;
  21:main.c        **** 
  22:main.c        **** uint8 counter = 0;
  23:main.c        **** int state = 0;
  24:main.c        **** CYBIT algorithm = 0;
  25:main.c        **** 
  26:main.c        **** 
  27:main.c        **** inline void runAlgorithm1();
  28:main.c        **** inline void runAlgorithm2();
  29:main.c        **** 
  30:main.c        **** CY_ISR(timer_isr_interrupt)
ARM GAS  C:\Users\elizavet\AppData\Local\Temp\cclTciX7.s 			page 2


  31:main.c        **** {
  28              		.loc 1 31 0
  29              		.cfi_startproc
  30              		@ args = 0, pretend = 0, frame = 0
  31              		@ frame_needed = 0, uses_anonymous_args = 0
  32 0000 10B5     		push	{r4, lr}
  33              		.cfi_def_cfa_offset 8
  34              		.cfi_offset 4, -8
  35              		.cfi_offset 14, -4
  32:main.c        ****     if (counter >= INTERVAL) 
  36              		.loc 1 32 0
  37 0002 074B     		ldr	r3, .L3
  38 0004 1B78     		ldrb	r3, [r3]
  39 0006 132B     		cmp	r3, #19
  40 0008 02D9     		bls	.L2
  33:main.c        ****     {
  34:main.c        ****         counter = 0;
  41              		.loc 1 34 0
  42 000a 0022     		movs	r2, #0
  43 000c 044B     		ldr	r3, .L3
  44 000e 1A70     		strb	r2, [r3]
  45              	.L2:
  35:main.c        ****     } 
  36:main.c        ****     counter++;
  46              		.loc 1 36 0
  47 0010 034A     		ldr	r2, .L3
  48 0012 1378     		ldrb	r3, [r2]
  49 0014 0133     		adds	r3, r3, #1
  50 0016 1370     		strb	r3, [r2]
  37:main.c        ****     Timer_Counter_ClearInterrupt(Timer_Counter_INTR_MASK_TC);
  51              		.loc 1 37 0
  52 0018 0120     		movs	r0, #1
  53 001a FFF7FEFF 		bl	Timer_Counter_ClearInterrupt
  54              	.LVL0:
  38:main.c        **** }
  55              		.loc 1 38 0
  56              		@ sp needed
  57 001e 10BD     		pop	{r4, pc}
  58              	.L4:
  59              		.align	2
  60              	.L3:
  61 0020 00000000 		.word	.LANCHOR0
  62              		.cfi_endproc
  63              	.LFE34:
  64              		.size	timer_isr_interrupt, .-timer_isr_interrupt
  65              		.section	.text.button_isr_interrupt,"ax",%progbits
  66              		.align	2
  67              		.global	button_isr_interrupt
  68              		.code	16
  69              		.thumb_func
  70              		.type	button_isr_interrupt, %function
  71              	button_isr_interrupt:
  72              	.LFB35:
  39:main.c        **** 
  40:main.c        **** CY_ISR(button_isr_interrupt)
  41:main.c        **** {
  73              		.loc 1 41 0
ARM GAS  C:\Users\elizavet\AppData\Local\Temp\cclTciX7.s 			page 3


  74              		.cfi_startproc
  75              		@ args = 0, pretend = 0, frame = 0
  76              		@ frame_needed = 0, uses_anonymous_args = 0
  77 0000 10B5     		push	{r4, lr}
  78              		.cfi_def_cfa_offset 8
  79              		.cfi_offset 4, -8
  80              		.cfi_offset 14, -4
  42:main.c        ****     state += 1;
  81              		.loc 1 42 0
  82 0002 034A     		ldr	r2, .L6
  83 0004 5368     		ldr	r3, [r2, #4]
  84 0006 0133     		adds	r3, r3, #1
  85 0008 5360     		str	r3, [r2, #4]
  43:main.c        ****     Button_ClearInterrupt();
  86              		.loc 1 43 0
  87 000a FFF7FEFF 		bl	Button_ClearInterrupt
  88              	.LVL1:
  44:main.c        **** }
  89              		.loc 1 44 0
  90              		@ sp needed
  91 000e 10BD     		pop	{r4, pc}
  92              	.L7:
  93              		.align	2
  94              	.L6:
  95 0010 00000000 		.word	.LANCHOR0
  96              		.cfi_endproc
  97              	.LFE35:
  98              		.size	button_isr_interrupt, .-button_isr_interrupt
  99              		.section	.text.main,"ax",%progbits
 100              		.align	2
 101              		.global	main
 102              		.code	16
 103              		.thumb_func
 104              		.type	main, %function
 105              	main:
 106              	.LFB36:
  45:main.c        **** 
  46:main.c        **** int main(void)
  47:main.c        **** {
 107              		.loc 1 47 0
 108              		.cfi_startproc
 109              		@ Volatile: function does not return.
 110              		@ args = 0, pretend = 0, frame = 0
 111              		@ frame_needed = 0, uses_anonymous_args = 0
 112 0000 10B5     		push	{r4, lr}
 113              		.cfi_def_cfa_offset 8
 114              		.cfi_offset 4, -8
 115              		.cfi_offset 14, -4
  48:main.c        ****     CyGlobalIntEnable; /* Enable global interrupts. */
 116              		.loc 1 48 0
 117              		.syntax divided
 118              	@ 48 "main.c" 1
 119 0002 62B6     		CPSIE   i
 120              	@ 0 "" 2
  49:main.c        ****     
  50:main.c        ****     Timer_Counter_Start();
 121              		.loc 1 50 0
ARM GAS  C:\Users\elizavet\AppData\Local\Temp\cclTciX7.s 			page 4


 122              		.thumb
 123              		.syntax unified
 124 0004 FFF7FEFF 		bl	Timer_Counter_Start
 125              	.LVL2:
  51:main.c        ****     timer_isr_StartEx(timer_isr_interrupt);
 126              		.loc 1 51 0
 127 0008 3E48     		ldr	r0, .L28
 128 000a FFF7FEFF 		bl	timer_isr_StartEx
 129              	.LVL3:
  52:main.c        ****     button_isr_StartEx(button_isr_interrupt);
 130              		.loc 1 52 0
 131 000e 3E48     		ldr	r0, .L28+4
 132 0010 FFF7FEFF 		bl	button_isr_StartEx
 133              	.LVL4:
 134              	.L9:
  53:main.c        **** 
  54:main.c        ****     for(;;)
  55:main.c        ****     {            
  56:main.c        ****         if (state % 2 == 1)
 135              		.loc 1 56 0
 136 0014 3D4B     		ldr	r3, .L28+8
 137 0016 5968     		ldr	r1, [r3, #4]
 138 0018 C80F     		lsrs	r0, r1, #31
 139 001a 0A18     		adds	r2, r1, r0
 140 001c 0123     		movs	r3, #1
 141 001e 1340     		ands	r3, r2
 142 0020 1B1A     		subs	r3, r3, r0
 143 0022 012B     		cmp	r3, #1
 144 0024 35D1     		bne	.L10
 145              	.LBB6:
 146              	.LBB7:
  57:main.c        ****         {
  58:main.c        ****             runAlgorithm1();
  59:main.c        ****         }
  60:main.c        ****         else if (state % 2 == 0)
  61:main.c        ****         {
  62:main.c        ****             runAlgorithm2();
  63:main.c        ****         }
  64:main.c        ****     }
  65:main.c        **** }
  66:main.c        **** 
  67:main.c        **** inline void runAlgorithm1()
  68:main.c        **** {
  69:main.c        ****     if (counter < 8)
 147              		.loc 1 69 0
 148 0026 394B     		ldr	r3, .L28+8
 149 0028 1B78     		ldrb	r3, [r3]
 150 002a 072B     		cmp	r3, #7
 151 002c 03D8     		bhi	.L11
  70:main.c        ****     {
  71:main.c        ****         Control_Reg_Write(R);
 152              		.loc 1 71 0
 153 002e 0120     		movs	r0, #1
 154 0030 FFF7FEFF 		bl	Control_Reg_Write
 155              	.LVL5:
 156 0034 EEE7     		b	.L9
 157              	.L11:
ARM GAS  C:\Users\elizavet\AppData\Local\Temp\cclTciX7.s 			page 5


  72:main.c        ****     }
  73:main.c        ****     else if (counter < 10)
 158              		.loc 1 73 0
 159 0036 092B     		cmp	r3, #9
 160 0038 03D8     		bhi	.L13
  74:main.c        ****     {
  75:main.c        ****         Control_Reg_Write(Y);
 161              		.loc 1 75 0
 162 003a 0220     		movs	r0, #2
 163 003c FFF7FEFF 		bl	Control_Reg_Write
 164              	.LVL6:
 165 0040 E8E7     		b	.L9
 166              	.L13:
  76:main.c        ****     }
  77:main.c        ****     else if (counter < 14)
 167              		.loc 1 77 0
 168 0042 0D2B     		cmp	r3, #13
 169 0044 03D8     		bhi	.L14
  78:main.c        ****     {
  79:main.c        ****         Control_Reg_Write(G);
 170              		.loc 1 79 0
 171 0046 0420     		movs	r0, #4
 172 0048 FFF7FEFF 		bl	Control_Reg_Write
 173              	.LVL7:
 174 004c E2E7     		b	.L9
 175              	.L14:
  80:main.c        ****     }
  81:main.c        ****     else if (counter < 15)
 176              		.loc 1 81 0
 177 004e 0E2B     		cmp	r3, #14
 178 0050 03D8     		bhi	.L15
  82:main.c        ****     {
  83:main.c        ****         Control_Reg_Write(_);
 179              		.loc 1 83 0
 180 0052 0020     		movs	r0, #0
 181 0054 FFF7FEFF 		bl	Control_Reg_Write
 182              	.LVL8:
 183 0058 DCE7     		b	.L9
 184              	.L15:
  84:main.c        ****     }
  85:main.c        ****     else if (counter < 16)
 185              		.loc 1 85 0
 186 005a 0F2B     		cmp	r3, #15
 187 005c 03D8     		bhi	.L16
  86:main.c        ****     {
  87:main.c        ****         Control_Reg_Write(G);
 188              		.loc 1 87 0
 189 005e 0420     		movs	r0, #4
 190 0060 FFF7FEFF 		bl	Control_Reg_Write
 191              	.LVL9:
 192 0064 D6E7     		b	.L9
 193              	.L16:
  88:main.c        ****     }
  89:main.c        ****     else if (counter < 17)
 194              		.loc 1 89 0
 195 0066 102B     		cmp	r3, #16
 196 0068 03D8     		bhi	.L17
ARM GAS  C:\Users\elizavet\AppData\Local\Temp\cclTciX7.s 			page 6


  90:main.c        ****     {
  91:main.c        ****         Control_Reg_Write(_);
 197              		.loc 1 91 0
 198 006a 0020     		movs	r0, #0
 199 006c FFF7FEFF 		bl	Control_Reg_Write
 200              	.LVL10:
 201 0070 D0E7     		b	.L9
 202              	.L17:
  92:main.c        ****     }
  93:main.c        ****     else if (counter < 18)
 203              		.loc 1 93 0
 204 0072 112B     		cmp	r3, #17
 205 0074 03D8     		bhi	.L18
  94:main.c        ****     {
  95:main.c        ****         Control_Reg_Write(G);
 206              		.loc 1 95 0
 207 0076 0420     		movs	r0, #4
 208 0078 FFF7FEFF 		bl	Control_Reg_Write
 209              	.LVL11:
 210 007c CAE7     		b	.L9
 211              	.L18:
  96:main.c        ****     }
  97:main.c        ****     else if (counter < 20)
 212              		.loc 1 97 0
 213 007e 132B     		cmp	r3, #19
 214 0080 03D8     		bhi	.L19
  98:main.c        ****     {
  99:main.c        ****         Control_Reg_Write(Y);
 215              		.loc 1 99 0
 216 0082 0220     		movs	r0, #2
 217 0084 FFF7FEFF 		bl	Control_Reg_Write
 218              	.LVL12:
 219 0088 C4E7     		b	.L9
 220              	.L19:
 100:main.c        ****     }
 101:main.c        ****     else
 102:main.c        ****     {
 103:main.c        ****         Control_Reg_Write(_);
 221              		.loc 1 103 0
 222 008a 0020     		movs	r0, #0
 223 008c FFF7FEFF 		bl	Control_Reg_Write
 224              	.LVL13:
 225 0090 C0E7     		b	.L9
 226              	.L10:
 227              	.LBE7:
 228              	.LBE6:
  60:main.c        ****         {
 229              		.loc 1 60 0
 230 0092 CB07     		lsls	r3, r1, #31
 231 0094 BED4     		bmi	.L9
 232              	.LBB8:
 233              	.LBB9:
 104:main.c        ****     }
 105:main.c        **** }
 106:main.c        **** 
 107:main.c        **** inline void runAlgorithm2()
 108:main.c        **** {
ARM GAS  C:\Users\elizavet\AppData\Local\Temp\cclTciX7.s 			page 7


 109:main.c        ****     if (counter < 4)
 234              		.loc 1 109 0
 235 0096 1D4B     		ldr	r3, .L28+8
 236 0098 1B78     		ldrb	r3, [r3]
 237 009a 032B     		cmp	r3, #3
 238 009c 03D8     		bhi	.L20
 110:main.c        ****     {
 111:main.c        ****         Control_Reg_Write(G);
 239              		.loc 1 111 0
 240 009e 0420     		movs	r0, #4
 241 00a0 FFF7FEFF 		bl	Control_Reg_Write
 242              	.LVL14:
 243 00a4 B6E7     		b	.L9
 244              	.L20:
 112:main.c        ****     }
 113:main.c        ****     else if (counter < 5)
 245              		.loc 1 113 0
 246 00a6 042B     		cmp	r3, #4
 247 00a8 03D8     		bhi	.L21
 114:main.c        ****     {
 115:main.c        ****         Control_Reg_Write(_);
 248              		.loc 1 115 0
 249 00aa 0020     		movs	r0, #0
 250 00ac FFF7FEFF 		bl	Control_Reg_Write
 251              	.LVL15:
 252 00b0 B0E7     		b	.L9
 253              	.L21:
 116:main.c        ****     }
 117:main.c        ****     else if (counter < 6)
 254              		.loc 1 117 0
 255 00b2 052B     		cmp	r3, #5
 256 00b4 03D8     		bhi	.L22
 118:main.c        ****     {
 119:main.c        ****         Control_Reg_Write(G);
 257              		.loc 1 119 0
 258 00b6 0420     		movs	r0, #4
 259 00b8 FFF7FEFF 		bl	Control_Reg_Write
 260              	.LVL16:
 261 00bc AAE7     		b	.L9
 262              	.L22:
 120:main.c        ****     }
 121:main.c        ****     else if (counter < 7)
 263              		.loc 1 121 0
 264 00be 062B     		cmp	r3, #6
 265 00c0 03D8     		bhi	.L23
 122:main.c        ****     {
 123:main.c        ****         Control_Reg_Write(_);
 266              		.loc 1 123 0
 267 00c2 0020     		movs	r0, #0
 268 00c4 FFF7FEFF 		bl	Control_Reg_Write
 269              	.LVL17:
 270 00c8 A4E7     		b	.L9
 271              	.L23:
 124:main.c        ****     }
 125:main.c        ****     else if (counter < 8)
 272              		.loc 1 125 0
 273 00ca 072B     		cmp	r3, #7
ARM GAS  C:\Users\elizavet\AppData\Local\Temp\cclTciX7.s 			page 8


 274 00cc 03D8     		bhi	.L24
 126:main.c        ****     {
 127:main.c        ****         Control_Reg_Write(G);
 275              		.loc 1 127 0
 276 00ce 0420     		movs	r0, #4
 277 00d0 FFF7FEFF 		bl	Control_Reg_Write
 278              	.LVL18:
 279 00d4 9EE7     		b	.L9
 280              	.L24:
 128:main.c        ****     }
 129:main.c        ****     else if (counter < 10)
 281              		.loc 1 129 0
 282 00d6 092B     		cmp	r3, #9
 283 00d8 03D8     		bhi	.L25
 130:main.c        ****     {
 131:main.c        ****         Control_Reg_Write(Y);
 284              		.loc 1 131 0
 285 00da 0220     		movs	r0, #2
 286 00dc FFF7FEFF 		bl	Control_Reg_Write
 287              	.LVL19:
 288 00e0 98E7     		b	.L9
 289              	.L25:
 132:main.c        ****     }
 133:main.c        ****     else if (counter < 18)
 290              		.loc 1 133 0
 291 00e2 112B     		cmp	r3, #17
 292 00e4 03D8     		bhi	.L26
 134:main.c        ****     {
 135:main.c        ****         Control_Reg_Write(R);
 293              		.loc 1 135 0
 294 00e6 0120     		movs	r0, #1
 295 00e8 FFF7FEFF 		bl	Control_Reg_Write
 296              	.LVL20:
 297 00ec 92E7     		b	.L9
 298              	.L26:
 136:main.c        ****     }
 137:main.c        ****     else if (counter < 20)
 299              		.loc 1 137 0
 300 00ee 132B     		cmp	r3, #19
 301 00f0 03D8     		bhi	.L27
 138:main.c        ****     {
 139:main.c        ****         Control_Reg_Write(Y);
 302              		.loc 1 139 0
 303 00f2 0220     		movs	r0, #2
 304 00f4 FFF7FEFF 		bl	Control_Reg_Write
 305              	.LVL21:
 306 00f8 8CE7     		b	.L9
 307              	.L27:
 140:main.c        ****     }
 141:main.c        ****     else
 142:main.c        ****     {
 143:main.c        ****         Control_Reg_Write(_);
 308              		.loc 1 143 0
 309 00fa 0020     		movs	r0, #0
 310 00fc FFF7FEFF 		bl	Control_Reg_Write
 311              	.LVL22:
 312 0100 88E7     		b	.L9
ARM GAS  C:\Users\elizavet\AppData\Local\Temp\cclTciX7.s 			page 9


 313              	.L29:
 314 0102 C046     		.align	2
 315              	.L28:
 316 0104 00000000 		.word	timer_isr_interrupt
 317 0108 00000000 		.word	button_isr_interrupt
 318 010c 00000000 		.word	.LANCHOR0
 319              	.LBE9:
 320              	.LBE8:
 321              		.cfi_endproc
 322              	.LFE36:
 323              		.size	main, .-main
 324              		.global	algorithm
 325              		.global	state
 326              		.global	counter
 327              		.bss
 328              		.align	2
 329              		.set	.LANCHOR0,. + 0
 330              		.type	counter, %object
 331              		.size	counter, 1
 332              	counter:
 333 0000 00       		.space	1
 334 0001 000000   		.space	3
 335              		.type	state, %object
 336              		.size	state, 4
 337              	state:
 338 0004 00000000 		.space	4
 339              		.type	algorithm, %object
 340              		.size	algorithm, 1
 341              	algorithm:
 342 0008 00       		.space	1
 343              		.text
 344              	.Letext0:
 345              		.file 2 "Generated_Source\\PSoC4/cytypes.h"
 346              		.file 3 "Generated_Source\\PSoC4/Timer_Counter.h"
 347              		.file 4 "Generated_Source\\PSoC4/Button.h"
 348              		.file 5 "Generated_Source\\PSoC4/Control_Reg.h"
 349              		.file 6 "Generated_Source\\PSoC4/timer_isr.h"
 350              		.file 7 "Generated_Source\\PSoC4/button_isr.h"